target datalayout = "e-m:e-p270:32:32-p271:32:32-p272:64:64-i64:64-i128:128-f80:128-n8:16:32:64-S128"
target triple = "x86_64-pc-linux-gnu"

%class.LBMStreamDialog = type { %class.QDialog, ptr, ptr, ptr }
%class.QDialog = type { %class.QWidget }
%class.QWidget = type { %class.QObject, %class.QPaintDevice.base, ptr }
%class.QObject = type { ptr, %class.QScopedPointer }
%class.QScopedPointer = type { ptr }
%class.QPaintDevice.base = type <{ ptr, i16 }>
%class.QFlags.9 = type { i32 }

@_ZTV15LBMStreamDialog = external unnamed_addr constant { [59 x ptr], [10 x ptr] }, align 8
@_ZN19LBMStreamDialogInfoC1Ev = unnamed_addr alias void (ptr), ptr @_ZN19LBMStreamDialogInfoC2Ev

; Function Attrs: mustprogress nounwind uwtable
define linkonce_odr void @_ZN6QFlagsIN2Qt10WindowTypeEEC2Ev(ptr noundef nonnull align 4 dereferenceable(4) %0) unnamed_addr #1 comdat align 2 {
  %2 = alloca ptr, align 8
  store ptr %0, ptr %2, align 8
  %3 = load ptr, ptr %2, align 8
  %4 = getelementptr inbounds %class.QFlags.9, ptr %3, i32 0, i32 0
  store i32 0, ptr %4, align 4
  ret void
}

; Function Attrs: mustprogress uwtable
define void @_ZN15LBMStreamDialogC2EP7QWidgetP13_capture_file(ptr noundef nonnull align 8 dereferenceable(64) %0, ptr noundef %1, ptr noundef %2) unnamed_addr #0 align 2 personality ptr @__gxx_personality_v0 {
  %4 = alloca ptr, align 8
  %5 = alloca ptr, align 8
  %6 = alloca ptr, align 8
  %7 = alloca %class.QFlags.9, align 4
  %8 = alloca ptr, align 8
  %9 = alloca i32, align 4
  store ptr %0, ptr %4, align 8
  store ptr %1, ptr %5, align 8
  store ptr %2, ptr %6, align 8
  %10 = load ptr, ptr %4, align 8
  %11 = load ptr, ptr %5, align 8
  call void @_ZN6QFlagsIN2Qt10WindowTypeEEC2Ev(ptr noundef nonnull align 4 dereferenceable(4) %7) #13
  %12 = getelementptr inbounds %class.QFlags.9, ptr %7, i32 0, i32 0
  %13 = load i32, ptr %12, align 4
  call void @_ZN7QDialogC2EP7QWidget6QFlagsIN2Qt10WindowTypeEE(ptr noundef nonnull align 8 dereferenceable(40) %10, ptr noundef %11, i32 %13)
  store ptr getelementptr inbounds ({ [59 x ptr], [10 x ptr] }, ptr @_ZTV15LBMStreamDialog, i32 0, i32 0, i32 2), ptr %10, align 8
  %14 = getelementptr inbounds i8, ptr %10, i64 16
  store ptr getelementptr inbounds ({ [59 x ptr], [10 x ptr] }, ptr @_ZTV15LBMStreamDialog, i32 0, i32 1, i32 2), ptr %14, align 8
  %15 = getelementptr inbounds %class.LBMStreamDialog, ptr %10, i32 0, i32 1
  %16 = invoke noalias noundef nonnull ptr @_Znwm(i64 noundef 72) #16
          to label %17 unwind label %30

17:                                               ; preds = %3
  store ptr %16, ptr %15, align 8
  %18 = getelementptr inbounds %class.LBMStreamDialog, ptr %10, i32 0, i32 2
  store ptr null, ptr %18, align 8
  %19 = getelementptr inbounds %class.LBMStreamDialog, ptr %10, i32 0, i32 3
  %20 = load ptr, ptr %6, align 8
  store ptr %20, ptr %19, align 8
  %21 = getelementptr inbounds %class.LBMStreamDialog, ptr %10, i32 0, i32 1
  %22 = load ptr, ptr %21, align 8
  invoke void @_ZN18Ui_LBMStreamDialog7setupUiEP7QDialog(ptr noundef nonnull align 8 dereferenceable(72) %22, ptr noundef %10)
          to label %23 unwind label %30

23:                                               ; preds = %17
  %24 = invoke noalias noundef nonnull ptr @_Znwm(i64 noundef 16) #16
          to label %25 unwind label %30

25:                                               ; preds = %23
  invoke void @_ZN19LBMStreamDialogInfoC1Ev(ptr noundef nonnull align 8 dereferenceable(16) %24)
          to label %26 unwind label %34

26:                                               ; preds = %25
  %27 = getelementptr inbounds %class.LBMStreamDialog, ptr %10, i32 0, i32 2
  store ptr %24, ptr %27, align 8
  invoke void @_ZN7QWidget12setAttributeEN2Qt15WidgetAttributeEb(ptr noundef nonnull align 8 dereferenceable(40) %10, i32 noundef 55, i1 noundef zeroext true)
          to label %28 unwind label %30

28:                                               ; preds = %26
  invoke void @_ZN15LBMStreamDialog8fillTreeEv(ptr noundef nonnull align 8 dereferenceable(64) %10)
          to label %29 unwind label %30

29:                                               ; preds = %28
  ret void

30:                                               ; preds = %28, %26, %23, %17, %3
  %31 = landingpad { ptr, i32 }
          cleanup
  %32 = extractvalue { ptr, i32 } %31, 0
  store ptr %32, ptr %8, align 8
  %33 = extractvalue { ptr, i32 } %31, 1
  store i32 %33, ptr %9, align 4
  br label %38

34:                                               ; preds = %25
  %35 = landingpad { ptr, i32 }
          cleanup
  %36 = extractvalue { ptr, i32 } %35, 0
  store ptr %36, ptr %8, align 8
  %37 = extractvalue { ptr, i32 } %35, 1
  store i32 %37, ptr %9, align 4
  call void @_ZdlPv(ptr noundef %24) #14
  br label %38

38:                                               ; preds = %34, %30
  call void @_ZN7QDialogD2Ev(ptr noundef nonnull align 8 dereferenceable(40) %10) #13
  br label %39

39:                                               ; preds = %38
  %40 = load ptr, ptr %8, align 8
  %41 = load i32, ptr %9, align 4
  %42 = insertvalue { ptr, i32 } poison, ptr %40, 0
  %43 = insertvalue { ptr, i32 } %42, i32 %41, 1
  resume { ptr, i32 } %43
}