; Function Attrs: mustprogress uwtable
define void @_ZN15LBMStreamDialogC2EP7QWidgetP13_capture_file(ptr noundef nonnull align 8 dereferenceable(64) %0, ptr noundef %1, ptr noundef %2) unnamed_addr #0 align 2 personality ptr @__gxx_personality_v0 {
  tail call void @_ZN7QDialogC2EP7QWidget6QFlagsIN2Qt10WindowTypeEE(ptr noundef nonnull align 8 dereferenceable(40) %0, ptr noundef %1, i32 0)
  store ptr getelementptr inbounds ({ [59 x ptr], [10 x ptr] }, ptr @_ZTV15LBMStreamDialog, i64 0, i32 0, i64 2), ptr %0, align 8
  %4 = getelementptr inbounds i8, ptr %0, i64 16
  store ptr getelementptr inbounds ({ [59 x ptr], [10 x ptr] }, ptr @_ZTV15LBMStreamDialog, i64 0, i32 1, i64 2), ptr %4, align 8
  %5 = invoke noalias noundef nonnull dereferenceable(72) ptr @_Znwm(i64 noundef 72) #19
          to label %6 unwind label %16

6:                                                ; preds = %3
  %7 = getelementptr inbounds i8, ptr %0, i64 40
  store ptr %5, ptr %7, align 8
  %8 = getelementptr inbounds i8, ptr %0, i64 48
  store ptr null, ptr %8, align 8
  %9 = getelementptr inbounds i8, ptr %0, i64 56
  store ptr %2, ptr %9, align 8
  invoke void @_ZN18Ui_LBMStreamDialog7setupUiEP7QDialog(ptr noundef nonnull align 8 dereferenceable(72) %5, ptr noundef nonnull %0)
          to label %10 unwind label %16

10:                                               ; preds = %6
  %11 = invoke noalias noundef nonnull dereferenceable(16) ptr @_Znwm(i64 noundef 16) #19
          to label %12 unwind label %16

12:                                               ; preds = %10
  invoke void @_ZN19LBMStreamDialogInfoC1Ev(ptr noundef nonnull align 8 dereferenceable(16) %11)
          to label %13 unwind label %18

13:                                               ; preds = %12
  store ptr %11, ptr %8, align 8
  invoke void @_ZN7QWidget12setAttributeEN2Qt15WidgetAttributeEb(ptr noundef nonnull align 8 dereferenceable(40) %0, i32 noundef 55, i1 noundef zeroext true)
          to label %14 unwind label %16

14:                                               ; preds = %13
  invoke void @_ZN15LBMStreamDialog8fillTreeEv(ptr noundef nonnull align 8 dereferenceable(64) %0)
          to label %15 unwind label %16

15:                                               ; preds = %14
  ret void

16:                                               ; preds = %14, %13, %10, %6, %3
  %17 = landingpad { ptr, i32 }
          cleanup
  br label %20

18:                                               ; preds = %12
  %19 = landingpad { ptr, i32 }
          cleanup
  tail call void @_ZdlPv(ptr noundef nonnull %11) #18
  br label %20

20:                                               ; preds = %18, %16
  %.pn = phi { ptr, i32 } [ %17, %16 ], [ %19, %18 ]
  tail call void @_ZN7QDialogD2Ev(ptr noundef nonnull align 8 dereferenceable(40) %0) #16
  resume { ptr, i32 } %.pn
}